; Function Attrs: mustprogress uwtable
define void @_ZN6google8protobuf6Struct8CopyFromERKS1_(ptr noundef nonnull align 8 dereferenceable(72) %this, ptr noundef nonnull align 8 dereferenceable(72) %from) local_unnamed_addr #3 align 2 {
entry:
  %cmp = icmp eq ptr %from, %this
  br i1 %cmp, label %return, label %if.end

if.end:                                           ; preds = %entry
  %0 = getelementptr inbounds i8, ptr %this, i64 16
  tail call void @_ZN6google8protobuf8internal12MapFieldBase5ClearEv(ptr noundef nonnull align 8 dereferenceable(16) %0)
  %_internal_metadata_.i = getelementptr inbounds i8, ptr %this, i64 8
  %1 = load i64, ptr %_internal_metadata_.i, align 8
  %and.i.i = and i64 %1, 1
  %tobool.i.not.i = icmp eq i64 %and.i.i, 0
  br i1 %tobool.i.not.i, label %_ZN6google8protobuf6Struct5ClearEv.exit, label %if.then.i.i

if.then.i.i:                                      ; preds = %if.end
  tail call void @_ZN6google8protobuf8internal16InternalMetadata7DoClearINS0_15UnknownFieldSetEEEvv(ptr noundef nonnull align 8 dereferenceable(8) %_internal_metadata_.i)
  br label %_ZN6google8protobuf6Struct5ClearEv.exit

_ZN6google8protobuf6Struct5ClearEv.exit:          ; preds = %if.end, %if.then.i.i
  %2 = getelementptr inbounds i8, ptr %from, i64 16
  %3 = load ptr, ptr %0, align 8
  %merge_from.i.i.i = getelementptr inbounds i8, ptr %3, i64 48
  %4 = load ptr, ptr %merge_from.i.i.i, align 8
  tail call void %4(ptr noundef nonnull align 8 dereferenceable(16) %0, ptr noundef nonnull align 8 dereferenceable(16) %2)
  %_internal_metadata_2.i.i = getelementptr inbounds i8, ptr %from, i64 8
  %5 = load i64, ptr %_internal_metadata_2.i.i, align 8
  %and.i14.i.i = and i64 %5, 1
  %tobool.i15.not.i.i = icmp eq i64 %and.i14.i.i, 0
  br i1 %tobool.i15.not.i.i, label %return, label %if.then.i8.i.i

if.then.i8.i.i:                                   ; preds = %_ZN6google8protobuf6Struct5ClearEv.exit
  %and.i.i.i = and i64 %5, -2
  %6 = inttoptr i64 %and.i.i.i to ptr
  %unknown_fields.i.i.i = getelementptr inbounds i8, ptr %6, i64 8
  tail call void @_ZN6google8protobuf8internal16InternalMetadata11DoMergeFromINS0_15UnknownFieldSetEEEvRKT_(ptr noundef nonnull align 8 dereferenceable(8) %_internal_metadata_.i, ptr noundef nonnull align 8 dereferenceable(24) %unknown_fields.i.i.i)
  br label %return

return:                                           ; preds = %if.then.i8.i.i, %_ZN6google8protobuf6Struct5ClearEv.exit, %entry
  ret void
}